target datalayout = "e-m:e-p270:32:32-p271:32:32-p272:64:64-i64:64-i128:128-f80:128-n8:16:32:64-S128"
target triple = "x86_64-pc-linux-gnu"

%struct.strbuf = type { i64, i64, ptr }

@__const.append_signoff.sob = private unnamed_addr constant %struct.strbuf { i64 0, i64 0, ptr @strbuf_slopbuf }, align 8
@sign_off_header = internal constant [16 x i8] c"Signed-off-by: \00", align 16
@.str.85 = private unnamed_addr constant [3 x i8] c"\0A\0A\00", align 1
@.str.86 = private unnamed_addr constant [2 x i8] c"\0A\00", align 1

; Function Attrs: inlinehint nounwind uwtable
define internal void @strbuf_complete(ptr noundef %0, i8 noundef signext %1) #1 {
  %3 = alloca ptr, align 8
  %4 = alloca i8, align 1
  store ptr %0, ptr %3, align 8, !tbaa !41
  store i8 %1, ptr %4, align 1, !tbaa !30
  %5 = load ptr, ptr %3, align 8, !tbaa !41
  %6 = getelementptr inbounds nuw %struct.strbuf, ptr %5, i32 0, i32 1
  %7 = load i64, ptr %6, align 8, !tbaa !45
  %8 = icmp ne i64 %7, 0
  br i1 %8, label %9, label %27

9:                                                ; preds = %2
  %10 = load ptr, ptr %3, align 8, !tbaa !41
  %11 = getelementptr inbounds nuw %struct.strbuf, ptr %10, i32 0, i32 2
  %12 = load ptr, ptr %11, align 8, !tbaa !37
  %13 = load ptr, ptr %3, align 8, !tbaa !41
  %14 = getelementptr inbounds nuw %struct.strbuf, ptr %13, i32 0, i32 1
  %15 = load i64, ptr %14, align 8, !tbaa !45
  %16 = sub i64 %15, 1
  %17 = getelementptr inbounds nuw i8, ptr %12, i64 %16
  %18 = load i8, ptr %17, align 1, !tbaa !30
  %19 = sext i8 %18 to i32
  %20 = load i8, ptr %4, align 1, !tbaa !30
  %21 = sext i8 %20 to i32
  %22 = icmp ne i32 %19, %21
  br i1 %22, label %23, label %27

23:                                               ; preds = %9
  %24 = load ptr, ptr %3, align 8, !tbaa !41
  %25 = load i8, ptr %4, align 1, !tbaa !30
  %26 = sext i8 %25 to i32
  call void @strbuf_addch(ptr noundef %24, i32 noundef %26)
  br label %27

27:                                               ; preds = %23, %9, %2
  ret void
}

; Function Attrs: inlinehint nounwind uwtable
define internal i64 @strbuf_avail(ptr noundef %0) #1 {
  %2 = alloca ptr, align 8
  store ptr %0, ptr %2, align 8, !tbaa !41
  %3 = load ptr, ptr %2, align 8, !tbaa !41
  %4 = getelementptr inbounds nuw %struct.strbuf, ptr %3, i32 0, i32 0
  %5 = load i64, ptr %4, align 8, !tbaa !44
  %6 = icmp ne i64 %5, 0
  br i1 %6, label %7, label %16

7:                                                ; preds = %1
  %8 = load ptr, ptr %2, align 8, !tbaa !41
  %9 = getelementptr inbounds nuw %struct.strbuf, ptr %8, i32 0, i32 0
  %10 = load i64, ptr %9, align 8, !tbaa !44
  %11 = load ptr, ptr %2, align 8, !tbaa !41
  %12 = getelementptr inbounds nuw %struct.strbuf, ptr %11, i32 0, i32 1
  %13 = load i64, ptr %12, align 8, !tbaa !45
  %14 = sub i64 %10, %13
  %15 = sub i64 %14, 1
  br label %17

16:                                               ; preds = %1
  br label %17

17:                                               ; preds = %16, %7
  %18 = phi i64 [ %15, %7 ], [ 0, %16 ]
  ret i64 %18
}

; Function Attrs: inlinehint nounwind uwtable
define internal void @strbuf_complete_line(ptr noundef %0) #1 {
  %2 = alloca ptr, align 8
  store ptr %0, ptr %2, align 8, !tbaa !41
  %3 = load ptr, ptr %2, align 8, !tbaa !41
  call void @strbuf_complete(ptr noundef %3, i8 noundef signext 10)
  ret void
}

; Function Attrs: inlinehint nounwind uwtable
define internal void @strbuf_addch(ptr noundef %0, i32 noundef %1) #1 {
  %3 = alloca ptr, align 8
  %4 = alloca i32, align 4
  store ptr %0, ptr %3, align 8, !tbaa !41
  store i32 %1, ptr %4, align 4, !tbaa !29
  %5 = load ptr, ptr %3, align 8, !tbaa !41
  %6 = call i64 @strbuf_avail(ptr noundef %5)
  %7 = icmp ne i64 %6, 0
  br i1 %7, label %10, label %8

8:                                                ; preds = %2
  %9 = load ptr, ptr %3, align 8, !tbaa !41
  call void @strbuf_grow(ptr noundef %9, i64 noundef 1)
  br label %10

10:                                               ; preds = %8, %2
  %11 = load i32, ptr %4, align 4, !tbaa !29
  %12 = trunc i32 %11 to i8
  %13 = load ptr, ptr %3, align 8, !tbaa !41
  %14 = getelementptr inbounds nuw %struct.strbuf, ptr %13, i32 0, i32 2
  %15 = load ptr, ptr %14, align 8, !tbaa !37
  %16 = load ptr, ptr %3, align 8, !tbaa !41
  %17 = getelementptr inbounds nuw %struct.strbuf, ptr %16, i32 0, i32 1
  %18 = load i64, ptr %17, align 8, !tbaa !45
  %19 = add i64 %18, 1
  store i64 %19, ptr %17, align 8, !tbaa !45
  %20 = getelementptr inbounds nuw i8, ptr %15, i64 %18
  store i8 %12, ptr %20, align 1, !tbaa !30
  %21 = load ptr, ptr %3, align 8, !tbaa !41
  %22 = getelementptr inbounds nuw %struct.strbuf, ptr %21, i32 0, i32 2
  %23 = load ptr, ptr %22, align 8, !tbaa !37
  %24 = load ptr, ptr %3, align 8, !tbaa !41
  %25 = getelementptr inbounds nuw %struct.strbuf, ptr %24, i32 0, i32 1
  %26 = load i64, ptr %25, align 8, !tbaa !45
  %27 = getelementptr inbounds nuw i8, ptr %23, i64 %26
  store i8 0, ptr %27, align 1, !tbaa !30
  ret void
}

; Function Attrs: inlinehint nounwind uwtable
define internal void @strbuf_addstr(ptr noundef %0, ptr noundef %1) #1 {
  %3 = alloca ptr, align 8
  %4 = alloca ptr, align 8
  store ptr %0, ptr %3, align 8, !tbaa !41
  store ptr %1, ptr %4, align 8, !tbaa !4
  %5 = load ptr, ptr %3, align 8, !tbaa !41
  %6 = load ptr, ptr %4, align 8, !tbaa !4
  %7 = load ptr, ptr %4, align 8, !tbaa !4
  %8 = call i64 @strlen(ptr noundef %7) #12
  call void @strbuf_add(ptr noundef %5, ptr noundef %6, i64 noundef %8)
  ret void
}

; Function Attrs: nounwind uwtable
define dso_local void @append_signoff(ptr noundef %0, i64 noundef %1, i32 noundef %2) #0 {
  %4 = alloca ptr, align 8
  %5 = alloca i64, align 8
  %6 = alloca i32, align 4
  %7 = alloca i32, align 4
  %8 = alloca %struct.strbuf, align 8
  %9 = alloca i32, align 4
  %10 = alloca ptr, align 8
  %11 = alloca i64, align 8
  store ptr %0, ptr %4, align 8, !tbaa !41
  store i64 %1, ptr %5, align 8, !tbaa !43
  store i32 %2, ptr %6, align 4, !tbaa !29
  call void @llvm.lifetime.start.p0(i64 4, ptr %7) #11
  %12 = load i32, ptr %6, align 4, !tbaa !29
  %13 = and i32 %12, 1
  store i32 %13, ptr %7, align 4, !tbaa !29
  call void @llvm.lifetime.start.p0(i64 24, ptr %8) #11
  call void @llvm.memcpy.p0.p0.i64(ptr align 8 %8, ptr align 8 @__const.append_signoff.sob, i64 24, i1 false)
  call void @llvm.lifetime.start.p0(i64 4, ptr %9) #11
  call void @strbuf_addstr(ptr noundef %8, ptr noundef @sign_off_header)
  %14 = call ptr @fmt_name(i32 noundef 2)
  call void @strbuf_addstr(ptr noundef %8, ptr noundef %14)
  call void @strbuf_addch(ptr noundef %8, i32 noundef 10)
  %15 = load i64, ptr %5, align 8, !tbaa !43
  %16 = icmp ne i64 %15, 0
  br i1 %16, label %19, label %17

17:                                               ; preds = %3
  %18 = load ptr, ptr %4, align 8, !tbaa !41
  call void @strbuf_complete_line(ptr noundef %18)
  br label %19

19:                                               ; preds = %17, %3
  %20 = load ptr, ptr %4, align 8, !tbaa !41
  %21 = getelementptr inbounds nuw %struct.strbuf, ptr %20, i32 0, i32 1
  %22 = load i64, ptr %21, align 8, !tbaa !45
  %23 = load i64, ptr %5, align 8, !tbaa !43
  %24 = sub i64 %22, %23
  %25 = getelementptr inbounds nuw %struct.strbuf, ptr %8, i32 0, i32 1
  %26 = load i64, ptr %25, align 8, !tbaa !45
  %27 = icmp eq i64 %24, %26
  br i1 %27, label %28, label %39

28:                                               ; preds = %19
  %29 = load ptr, ptr %4, align 8, !tbaa !41
  %30 = getelementptr inbounds nuw %struct.strbuf, ptr %29, i32 0, i32 2
  %31 = load ptr, ptr %30, align 8, !tbaa !37
  %32 = getelementptr inbounds nuw %struct.strbuf, ptr %8, i32 0, i32 2
  %33 = load ptr, ptr %32, align 8, !tbaa !37
  %34 = getelementptr inbounds nuw %struct.strbuf, ptr %8, i32 0, i32 1
  %35 = load i64, ptr %34, align 8, !tbaa !45
  %36 = call i32 @strncmp(ptr noundef %31, ptr noundef %33, i64 noundef %35) #12
  %37 = icmp ne i32 %36, 0
  br i1 %37, label %39, label %38

38:                                               ; preds = %28
  store i32 3, ptr %9, align 4, !tbaa !29
  br label %43

39:                                               ; preds = %28, %19
  %40 = load ptr, ptr %4, align 8, !tbaa !41
  %41 = load i64, ptr %5, align 8, !tbaa !43
  %42 = call i32 @has_conforming_footer(ptr noundef %40, ptr noundef %8, i64 noundef %41)
  store i32 %42, ptr %9, align 4, !tbaa !29
  br label %43

43:                                               ; preds = %39, %38
  %44 = load i32, ptr %9, align 4, !tbaa !29
  %45 = icmp ne i32 %44, 0
  br i1 %45, label %86, label %46

46:                                               ; preds = %43
  call void @llvm.lifetime.start.p0(i64 8, ptr %10) #11
  store ptr null, ptr %10, align 8, !tbaa !4
  call void @llvm.lifetime.start.p0(i64 8, ptr %11) #11
  %47 = load ptr, ptr %4, align 8, !tbaa !41
  %48 = getelementptr inbounds nuw %struct.strbuf, ptr %47, i32 0, i32 1
  %49 = load i64, ptr %48, align 8, !tbaa !45
  %50 = load i64, ptr %5, align 8, !tbaa !43
  %51 = sub i64 %49, %50
  store i64 %51, ptr %11, align 8, !tbaa !43
  %52 = load i64, ptr %11, align 8, !tbaa !43
  %53 = icmp ne i64 %52, 0
  br i1 %53, label %55, label %54

54:                                               ; preds = %46
  store ptr @.str.85, ptr %10, align 8, !tbaa !4
  br label %72

55:                                               ; preds = %46
  %56 = load i64, ptr %11, align 8, !tbaa !43
  %57 = icmp eq i64 %56, 1
  br i1 %57, label %58, label %59

58:                                               ; preds = %55
  store ptr @.str.86, ptr %10, align 8, !tbaa !4
  br label %71

59:                                               ; preds = %55
  %60 = load ptr, ptr %4, align 8, !tbaa !41
  %61 = getelementptr inbounds nuw %struct.strbuf, ptr %60, i32 0, i32 2
  %62 = load ptr, ptr %61, align 8, !tbaa !37
  %63 = load i64, ptr %11, align 8, !tbaa !43
  %64 = sub i64 %63, 2
  %65 = getelementptr inbounds nuw i8, ptr %62, i64 %64
  %66 = load i8, ptr %65, align 1, !tbaa !30
  %67 = sext i8 %66 to i32
  %68 = icmp ne i32 %67, 10
  br i1 %68, label %69, label %70

69:                                               ; preds = %59
  store ptr @.str.86, ptr %10, align 8, !tbaa !4
  br label %70

70:                                               ; preds = %69, %59
  br label %71

71:                                               ; preds = %70, %58
  br label %72

72:                                               ; preds = %71, %54
  %73 = load ptr, ptr %10, align 8, !tbaa !4
  %74 = icmp ne ptr %73, null
  br i1 %74, label %75, label %85

75:                                               ; preds = %72
  %76 = load ptr, ptr %4, align 8, !tbaa !41
  %77 = load ptr, ptr %4, align 8, !tbaa !41
  %78 = getelementptr inbounds nuw %struct.strbuf, ptr %77, i32 0, i32 1
  %79 = load i64, ptr %78, align 8, !tbaa !45
  %80 = load i64, ptr %5, align 8, !tbaa !43
  %81 = sub i64 %79, %80
  %82 = load ptr, ptr %10, align 8, !tbaa !4
  %83 = load ptr, ptr %10, align 8, !tbaa !4
  %84 = call i64 @strlen(ptr noundef %83) #12
  call void @strbuf_splice(ptr noundef %76, i64 noundef %81, i64 noundef 0, ptr noundef %82, i64 noundef %84)
  br label %85

85:                                               ; preds = %75, %72
  call void @llvm.lifetime.end.p0(i64 8, ptr %11) #11
  call void @llvm.lifetime.end.p0(i64 8, ptr %10) #11
  br label %86

86:                                               ; preds = %85, %43
  %87 = load i32, ptr %9, align 4, !tbaa !29
  %88 = icmp ne i32 %87, 3
  br i1 %88, label %89, label %106

89:                                               ; preds = %86
  %90 = load i32, ptr %7, align 4, !tbaa !29
  %91 = icmp ne i32 %90, 0
  br i1 %91, label %92, label %95

92:                                               ; preds = %89
  %93 = load i32, ptr %9, align 4, !tbaa !29
  %94 = icmp ne i32 %93, 2
  br i1 %94, label %95, label %106

95:                                               ; preds = %92, %89
  %96 = load ptr, ptr %4, align 8, !tbaa !41
  %97 = load ptr, ptr %4, align 8, !tbaa !41
  %98 = getelementptr inbounds nuw %struct.strbuf, ptr %97, i32 0, i32 1
  %99 = load i64, ptr %98, align 8, !tbaa !45
  %100 = load i64, ptr %5, align 8, !tbaa !43
  %101 = sub i64 %99, %100
  %102 = getelementptr inbounds nuw %struct.strbuf, ptr %8, i32 0, i32 2
  %103 = load ptr, ptr %102, align 8, !tbaa !37
  %104 = getelementptr inbounds nuw %struct.strbuf, ptr %8, i32 0, i32 1
  %105 = load i64, ptr %104, align 8, !tbaa !45
  call void @strbuf_splice(ptr noundef %96, i64 noundef %101, i64 noundef 0, ptr noundef %103, i64 noundef %105)
  br label %106

106:                                              ; preds = %95, %92, %86
  call void @strbuf_release(ptr noundef %8)
  call void @llvm.lifetime.end.p0(i64 4, ptr %9) #11
  call void @llvm.lifetime.end.p0(i64 24, ptr %8) #11
  call void @llvm.lifetime.end.p0(i64 4, ptr %7) #11
  ret void
}