; Function Attrs: nounwind uwtable
define dso_local void @append_signoff(ptr noundef %0, i64 noundef %1, i32 noundef %2) local_unnamed_addr #0 {
  %4 = alloca %struct.strbuf, align 8
  %5 = and i32 %2, 1
  call void @llvm.lifetime.start.p0(i64 24, ptr nonnull %4) #20
  call void @llvm.memcpy.p0.p0.i64(ptr noundef nonnull align 8 dereferenceable(24) %4, ptr noundef nonnull align 8 dereferenceable(24) @__const.make_script_with_merges.label_from_message, i64 24, i1 false)
  call void @strbuf_add(ptr noundef nonnull %4, ptr noundef nonnull @sign_off_header, i64 noundef 15) #20
  %6 = call ptr @fmt_name(i32 noundef 2) #20
  %7 = call i64 @strlen(ptr noundef nonnull dereferenceable(1) %6) #21
  call void @strbuf_add(ptr noundef nonnull %4, ptr noundef nonnull %6, i64 noundef %7) #20
  %8 = load i64, ptr %4, align 8, !tbaa !34
  %.not.i.i = icmp eq i64 %8, 0
  br i1 %.not.i.i, label %strbuf_avail.exit.thread.i, label %strbuf_avail.exit.i

strbuf_avail.exit.i:                              ; preds = %3
  %9 = getelementptr inbounds nuw i8, ptr %4, i64 8
  %10 = load i64, ptr %9, align 8, !tbaa !33
  %.neg.i = add i64 %10, 1
  %.not.i = icmp eq i64 %8, %.neg.i
  br i1 %.not.i, label %strbuf_avail.exit.thread.i, label %strbuf_addch.exit

strbuf_avail.exit.thread.i:                       ; preds = %strbuf_avail.exit.i, %3
  call void @strbuf_grow(ptr noundef nonnull %4, i64 noundef 1) #20
  %.phi.trans.insert.i = getelementptr inbounds nuw i8, ptr %4, i64 8
  %.pre.i = load i64, ptr %.phi.trans.insert.i, align 8, !tbaa !33
  %.pre7.i = add i64 %.pre.i, 1
  br label %strbuf_addch.exit

strbuf_addch.exit:                                ; preds = %strbuf_avail.exit.i, %strbuf_avail.exit.thread.i
  %.pre-phi.i = phi i64 [ %.pre7.i, %strbuf_avail.exit.thread.i ], [ %.neg.i, %strbuf_avail.exit.i ]
  %11 = phi i64 [ %.pre.i, %strbuf_avail.exit.thread.i ], [ %10, %strbuf_avail.exit.i ]
  %12 = getelementptr inbounds nuw i8, ptr %4, i64 16
  %13 = load ptr, ptr %12, align 8, !tbaa !31
  %14 = getelementptr inbounds nuw i8, ptr %4, i64 8
  store i64 %.pre-phi.i, ptr %14, align 8, !tbaa !33
  %15 = getelementptr inbounds nuw i8, ptr %13, i64 %11
  store i8 10, ptr %15, align 1, !tbaa !24
  %16 = load ptr, ptr %12, align 8, !tbaa !31
  %17 = load i64, ptr %14, align 8, !tbaa !33
  %18 = getelementptr inbounds nuw i8, ptr %16, i64 %17
  store i8 0, ptr %18, align 1, !tbaa !24
  %.not = icmp eq i64 %1, 0
  br i1 %.not, label %19, label %strbuf_complete_line.exit

19:                                               ; preds = %strbuf_addch.exit
  %20 = getelementptr inbounds nuw i8, ptr %0, i64 8
  %21 = load i64, ptr %20, align 8, !tbaa !33
  %.not.i.i37 = icmp eq i64 %21, 0
  br i1 %.not.i.i37, label %strbuf_complete_line.exit, label %22

22:                                               ; preds = %19
  %23 = getelementptr inbounds nuw i8, ptr %0, i64 16
  %24 = load ptr, ptr %23, align 8, !tbaa !31
  %25 = getelementptr i8, ptr %24, i64 %21
  %26 = getelementptr i8, ptr %25, i64 -1
  %27 = load i8, ptr %26, align 1, !tbaa !24
  %.not6.i.i = icmp eq i8 %27, 10
  br i1 %.not6.i.i, label %strbuf_complete_line.exit, label %28

28:                                               ; preds = %22
  %29 = load i64, ptr %0, align 8, !tbaa !34
  %.not.i.i.i.i = icmp eq i64 %29, 0
  %.neg.i.i.i = add i64 %21, 1
  %.not.i.i.i = icmp eq i64 %29, %.neg.i.i.i
  %or.cond.i.i = or i1 %.not.i.i.i.i, %.not.i.i.i
  br i1 %or.cond.i.i, label %strbuf_avail.exit.thread.i.i.i, label %strbuf_addch.exit.i.i

strbuf_avail.exit.thread.i.i.i:                   ; preds = %28
  call void @strbuf_grow(ptr noundef nonnull %0, i64 noundef 1) #20
  %.pre.i.i.i = load i64, ptr %20, align 8, !tbaa !33
  %.pre7.i.i.i = add i64 %.pre.i.i.i, 1
  %.pre.i.i = load ptr, ptr %23, align 8, !tbaa !31
  br label %strbuf_addch.exit.i.i

strbuf_addch.exit.i.i:                            ; preds = %strbuf_avail.exit.thread.i.i.i, %28
  %30 = phi ptr [ %.pre.i.i, %strbuf_avail.exit.thread.i.i.i ], [ %24, %28 ]
  %.pre-phi.i.i.i = phi i64 [ %.pre7.i.i.i, %strbuf_avail.exit.thread.i.i.i ], [ %.neg.i.i.i, %28 ]
  %31 = phi i64 [ %.pre.i.i.i, %strbuf_avail.exit.thread.i.i.i ], [ %21, %28 ]
  store i64 %.pre-phi.i.i.i, ptr %20, align 8, !tbaa !33
  %32 = getelementptr inbounds nuw i8, ptr %30, i64 %31
  store i8 10, ptr %32, align 1, !tbaa !24
  %33 = load ptr, ptr %23, align 8, !tbaa !31
  %34 = load i64, ptr %20, align 8, !tbaa !33
  %35 = getelementptr inbounds nuw i8, ptr %33, i64 %34
  store i8 0, ptr %35, align 1, !tbaa !24
  br label %strbuf_complete_line.exit

strbuf_complete_line.exit:                        ; preds = %strbuf_addch.exit.i.i, %22, %19, %strbuf_addch.exit
  %36 = getelementptr inbounds nuw i8, ptr %0, i64 8
  %37 = load i64, ptr %36, align 8, !tbaa !33
  %38 = sub i64 %37, %1
  %39 = load i64, ptr %14, align 8, !tbaa !33
  %40 = icmp eq i64 %38, %39
  br i1 %40, label %41, label %46

41:                                               ; preds = %strbuf_complete_line.exit
  %42 = getelementptr inbounds nuw i8, ptr %0, i64 16
  %43 = load ptr, ptr %42, align 8, !tbaa !31
  %44 = load ptr, ptr %12, align 8, !tbaa !31
  %45 = call i32 @strncmp(ptr noundef %43, ptr noundef %44, i64 noundef %38) #21
  %.not30 = icmp eq i32 %45, 0
  br i1 %.not30, label %.thread, label %46

46:                                               ; preds = %strbuf_complete_line.exit, %41
  %47 = call fastcc i32 @has_conforming_footer(ptr noundef nonnull %0, ptr noundef nonnull %4, i64 noundef %1)
  switch i32 %47, label %60 [
    i32 0, label %48
    i32 3, label %.thread
  ]

48:                                               ; preds = %46
  %49 = load i64, ptr %36, align 8, !tbaa !33
  %50 = sub i64 %49, %1
  %.not32 = icmp eq i64 %49, %1
  br i1 %.not32, label %.thread39, label %51

51:                                               ; preds = %48
  %52 = icmp eq i64 %50, 1
  br i1 %52, label %.thread39, label %53

53:                                               ; preds = %51
  %54 = getelementptr inbounds nuw i8, ptr %0, i64 16
  %55 = load ptr, ptr %54, align 8, !tbaa !31
  %56 = getelementptr i8, ptr %55, i64 %50
  %57 = getelementptr i8, ptr %56, i64 -2
  %58 = load i8, ptr %57, align 1, !tbaa !24
  %.not33 = icmp eq i8 %58, 10
  br i1 %.not33, label %.thread44, label %.thread39

.thread39:                                        ; preds = %51, %48, %53
  %.02742 = phi ptr [ @.str.86, %53 ], [ @.str.86, %51 ], [ @.str.85, %48 ]
  %59 = call i64 @strlen(ptr noundef nonnull dereferenceable(1) %.02742) #21
  call void @strbuf_splice(ptr noundef nonnull %0, i64 noundef %50, i64 noundef 0, ptr noundef nonnull %.02742, i64 noundef %59) #20
  br label %.thread44

60:                                               ; preds = %46
  %61 = icmp eq i32 %5, 0
  %62 = icmp ne i32 %47, 2
  %or.cond = or i1 %61, %62
  br i1 %or.cond, label %.thread44, label %.thread

.thread44:                                        ; preds = %53, %.thread39, %60
  %63 = load i64, ptr %36, align 8, !tbaa !33
  %64 = sub i64 %63, %1
  %65 = load ptr, ptr %12, align 8, !tbaa !31
  %66 = load i64, ptr %14, align 8, !tbaa !33
  call void @strbuf_splice(ptr noundef nonnull %0, i64 noundef %64, i64 noundef 0, ptr noundef %65, i64 noundef %66) #20
  br label %.thread

.thread:                                          ; preds = %41, %46, %60, %.thread44
  call void @strbuf_release(ptr noundef nonnull %4) #20
  call void @llvm.lifetime.end.p0(i64 24, ptr nonnull %4) #20
  ret void
}